target datalayout = "e-m:e-p270:32:32-p271:32:32-p272:64:64-i64:64-i128:128-f80:128-n8:16:32:64-S128"
target triple = "x86_64-pc-linux-gnu"

; Function Attrs: nounwind uwtable
define internal i32 @pg_wchar2single_with_len(ptr noundef %0, ptr noundef %1, i32 noundef %2) #1 {
  %4 = alloca ptr, align 8
  %5 = alloca ptr, align 8
  %6 = alloca i32, align 4
  %7 = alloca i32, align 4
  store ptr %0, ptr %4, align 8
  store ptr %1, ptr %5, align 8
  store i32 %2, ptr %6, align 4
  call void @llvm.lifetime.start.p0(i64 4, ptr %7) #7
  store i32 0, ptr %7, align 4
  br label %8

8:                                                ; preds = %17, %3
  %9 = load i32, ptr %6, align 4
  %10 = icmp sgt i32 %9, 0
  br i1 %10, label %11, label %15

11:                                               ; preds = %8
  %12 = load ptr, ptr %4, align 8
  %13 = load i32, ptr %12, align 4
  %14 = icmp ne i32 %13, 0
  br label %15

15:                                               ; preds = %11, %8
  %16 = phi i1 [ false, %8 ], [ %14, %11 ]
  br i1 %16, label %17, label %28

17:                                               ; preds = %15
  %18 = load ptr, ptr %4, align 8
  %19 = getelementptr inbounds nuw i32, ptr %18, i32 1
  store ptr %19, ptr %4, align 8
  %20 = load i32, ptr %18, align 4
  %21 = trunc i32 %20 to i8
  %22 = load ptr, ptr %5, align 8
  %23 = getelementptr inbounds nuw i8, ptr %22, i32 1
  store ptr %23, ptr %5, align 8
  store i8 %21, ptr %22, align 1
  %24 = load i32, ptr %6, align 4
  %25 = add i32 %24, -1
  store i32 %25, ptr %6, align 4
  %26 = load i32, ptr %7, align 4
  %27 = add i32 %26, 1
  store i32 %27, ptr %7, align 4
  br label %8, !llvm.loop !6

28:                                               ; preds = %15
  %29 = load ptr, ptr %5, align 8
  store i8 0, ptr %29, align 1
  %30 = load i32, ptr %7, align 4
  call void @llvm.lifetime.end.p0(i64 4, ptr %7) #7
  ret i32 %30
}